target datalayout = "e-m:e-p270:32:32-p271:32:32-p272:64:64-i64:64-i128:128-f80:128-n8:16:32:64-S128"
target triple = "x86_64-pc-linux-gnu"

@g_ascii_table = external constant ptr, align 8

; Function Attrs: nounwind uwtable
define internal i32 @_sort_iter_compare_func_char(ptr noundef %0, ptr noundef %1, ptr noundef %2, ptr noundef %3) #0 {
  %5 = alloca ptr, align 8
  %6 = alloca ptr, align 8
  %7 = alloca ptr, align 8
  %8 = alloca ptr, align 8
  %9 = alloca i32, align 4
  %10 = alloca i32, align 4
  %11 = alloca i32, align 4
  %12 = alloca i32, align 4
  %13 = alloca ptr, align 8
  %14 = alloca ptr, align 8
  store ptr %0, ptr %5, align 8
  store ptr %1, ptr %6, align 8
  store ptr %2, ptr %7, align 8
  store ptr %3, ptr %8, align 8
  call void @llvm.lifetime.start.p0(i64 4, ptr %9) #11
  %15 = load ptr, ptr %8, align 8
  %16 = ptrtoint ptr %15 to i64
  %17 = trunc i64 %16 to i32
  store i32 %17, ptr %9, align 4
  call void @llvm.lifetime.start.p0(i64 4, ptr %10) #11
  store i32 0, ptr %10, align 4
  call void @llvm.lifetime.start.p0(i64 4, ptr %11) #11
  store i32 0, ptr %11, align 4
  call void @llvm.lifetime.start.p0(i64 4, ptr %12) #11
  store i32 0, ptr %12, align 4
  call void @llvm.lifetime.start.p0(i64 8, ptr %13) #11
  store ptr null, ptr %13, align 8
  call void @llvm.lifetime.start.p0(i64 8, ptr %14) #11
  store ptr null, ptr %14, align 8
  %18 = load ptr, ptr %5, align 8
  %19 = load ptr, ptr %6, align 8
  %20 = load i32, ptr %9, align 4
  call void (ptr, ptr, ...) @gtk_tree_model_get(ptr noundef %18, ptr noundef %19, i32 noundef %20, ptr noundef %13, i32 noundef -1)
  %21 = load ptr, ptr %5, align 8
  %22 = load ptr, ptr %7, align 8
  %23 = load i32, ptr %9, align 4
  call void (ptr, ptr, ...) @gtk_tree_model_get(ptr noundef %21, ptr noundef %22, i32 noundef %23, ptr noundef %14, i32 noundef -1)
  %24 = load ptr, ptr %13, align 8
  %25 = icmp ne ptr %24, null
  br i1 %25, label %30, label %26

26:                                               ; preds = %4
  %27 = load ptr, ptr %14, align 8
  %28 = icmp ne ptr %27, null
  br i1 %28, label %30, label %29

29:                                               ; preds = %26
  br label %109

30:                                               ; preds = %26, %4
  %31 = load ptr, ptr %13, align 8
  %32 = icmp ne ptr %31, null
  br i1 %32, label %33, label %36

33:                                               ; preds = %30
  %34 = load ptr, ptr %14, align 8
  %35 = icmp ne ptr %34, null
  br i1 %35, label %40, label %36

36:                                               ; preds = %33, %30
  %37 = load ptr, ptr %13, align 8
  %38 = icmp eq ptr %37, null
  %39 = select i1 %38, i32 -1, i32 1
  store i32 %39, ptr %10, align 4
  br label %107

40:                                               ; preds = %33
  %41 = load ptr, ptr %13, align 8
  %42 = call i64 @strlen(ptr noundef %41) #13
  %43 = trunc i64 %42 to i32
  store i32 %43, ptr %11, align 4
  %44 = load ptr, ptr %14, align 8
  %45 = call i64 @strlen(ptr noundef %44) #13
  %46 = trunc i64 %45 to i32
  store i32 %46, ptr %12, align 4
  br label %47

47:                                               ; preds = %67, %40
  %48 = load i32, ptr %10, align 4
  %49 = load i32, ptr %11, align 4
  %50 = icmp slt i32 %48, %49
  br i1 %50, label %51, label %65

51:                                               ; preds = %47
  %52 = load ptr, ptr @g_ascii_table, align 8
  %53 = load ptr, ptr %13, align 8
  %54 = load i32, ptr %10, align 4
  %55 = sext i32 %54 to i64
  %56 = getelementptr inbounds i8, ptr %53, i64 %55
  %57 = load i8, ptr %56, align 1
  %58 = zext i8 %57 to i64
  %59 = getelementptr inbounds nuw i16, ptr %52, i64 %58
  %60 = load i16, ptr %59, align 2
  %61 = zext i16 %60 to i32
  %62 = and i32 %61, 8
  %63 = icmp ne i32 %62, 0
  %64 = xor i1 %63, true
  br label %65

65:                                               ; preds = %51, %47
  %66 = phi i1 [ false, %47 ], [ %64, %51 ]
  br i1 %66, label %67, label %70

67:                                               ; preds = %65
  %68 = load i32, ptr %10, align 4
  %69 = add nsw i32 %68, 1
  store i32 %69, ptr %10, align 4
  br label %47, !llvm.loop !39

70:                                               ; preds = %65
  %71 = load i32, ptr %10, align 4
  %72 = load i32, ptr %11, align 4
  %73 = icmp slt i32 %71, %72
  br i1 %73, label %74, label %102

74:                                               ; preds = %70
  %75 = load ptr, ptr %13, align 8
  %76 = load ptr, ptr %14, align 8
  %77 = load i32, ptr %10, align 4
  %78 = sext i32 %77 to i64
  %79 = call i32 @g_ascii_strncasecmp(ptr noundef %75, ptr noundef %76, i64 noundef %78)
  %80 = icmp ne i32 %79, 0
  br i1 %80, label %97, label %81

81:                                               ; preds = %74
  %82 = load i32, ptr %11, align 4
  %83 = load i32, ptr %12, align 4
  %84 = icmp sgt i32 %82, %83
  br i1 %84, label %85, label %86

85:                                               ; preds = %81
  store i32 1, ptr %10, align 4
  br label %96

86:                                               ; preds = %81
  %87 = load i32, ptr %11, align 4
  %88 = load i32, ptr %12, align 4
  %89 = icmp slt i32 %87, %88
  br i1 %89, label %90, label %91

90:                                               ; preds = %86
  store i32 -1, ptr %10, align 4
  br label %95

91:                                               ; preds = %86
  %92 = load ptr, ptr %13, align 8
  %93 = load ptr, ptr %14, align 8
  %94 = call i32 @g_ascii_strcasecmp(ptr noundef %92, ptr noundef %93)
  store i32 %94, ptr %10, align 4
  br label %95

95:                                               ; preds = %91, %90
  br label %96

96:                                               ; preds = %95, %85
  br label %101

97:                                               ; preds = %74
  %98 = load ptr, ptr %13, align 8
  %99 = load ptr, ptr %14, align 8
  %100 = call i32 @g_ascii_strcasecmp(ptr noundef %98, ptr noundef %99)
  store i32 %100, ptr %10, align 4
  br label %101

101:                                              ; preds = %97, %96
  br label %106

102:                                              ; preds = %70
  %103 = load ptr, ptr %13, align 8
  %104 = load ptr, ptr %14, align 8
  %105 = call i32 @g_ascii_strcasecmp(ptr noundef %103, ptr noundef %104)
  store i32 %105, ptr %10, align 4
  br label %106

106:                                              ; preds = %102, %101
  br label %107

107:                                              ; preds = %106, %36
  br label %108

108:                                              ; preds = %107
  br label %109

109:                                              ; preds = %108, %29
  %110 = load ptr, ptr %13, align 8
  call void @g_free(ptr noundef %110)
  %111 = load ptr, ptr %14, align 8
  call void @g_free(ptr noundef %111)
  %112 = load i32, ptr %10, align 4
  call void @llvm.lifetime.end.p0(i64 8, ptr %14) #11
  call void @llvm.lifetime.end.p0(i64 8, ptr %13) #11
  call void @llvm.lifetime.end.p0(i64 4, ptr %12) #11
  call void @llvm.lifetime.end.p0(i64 4, ptr %11) #11
  call void @llvm.lifetime.end.p0(i64 4, ptr %10) #11
  call void @llvm.lifetime.end.p0(i64 4, ptr %9) #11
  ret i32 %112
}