; Function Attrs: nounwind uwtable
define internal i32 @_sort_iter_compare_func_char(ptr noundef %0, ptr noundef %1, ptr noundef %2, ptr noundef %3) #2 {
  %5 = alloca ptr, align 8
  %6 = alloca ptr, align 8
  %7 = ptrtoint ptr %3 to i64
  %8 = trunc i64 %7 to i32
  call void @llvm.lifetime.start.p0(i64 8, ptr nonnull %5) #16
  store ptr null, ptr %5, align 8
  call void @llvm.lifetime.start.p0(i64 8, ptr nonnull %6) #16
  store ptr null, ptr %6, align 8
  call void (ptr, ptr, ...) @gtk_tree_model_get(ptr noundef %0, ptr noundef %1, i32 noundef %8, ptr noundef nonnull %5, i32 noundef -1) #16
  call void (ptr, ptr, ...) @gtk_tree_model_get(ptr noundef %0, ptr noundef %2, i32 noundef %8, ptr noundef nonnull %6, i32 noundef -1) #16
  %9 = load ptr, ptr %5, align 8
  %10 = icmp ne ptr %9, null
  %11 = load ptr, ptr %6, align 8
  %12 = icmp ne ptr %11, null
  %or.cond = select i1 %10, i1 true, i1 %12
  br i1 %or.cond, label %13, label %46

13:                                               ; preds = %4
  %or.cond3 = select i1 %10, i1 %12, i1 false
  br i1 %or.cond3, label %17, label %14

14:                                               ; preds = %13
  %15 = icmp eq ptr %9, null
  %16 = select i1 %15, i32 -1, i32 1
  br label %46

17:                                               ; preds = %13
  %18 = call i64 @strlen(ptr noundef nonnull dereferenceable(1) %9) #18
  %19 = trunc i64 %18 to i32
  %20 = call i64 @strlen(ptr noundef nonnull dereferenceable(1) %11) #18
  %21 = trunc i64 %20 to i32
  %22 = icmp sgt i32 %19, 0
  br i1 %22, label %.lr.ph, label %.critedge26

.lr.ph:                                           ; preds = %17
  %23 = load ptr, ptr @g_ascii_table, align 8
  %wide.trip.count = and i64 %18, 2147483647
  br label %25

24:                                               ; preds = %25
  %indvars.iv.next = add nuw nsw i64 %indvars.iv, 1
  %exitcond.not = icmp eq i64 %indvars.iv.next, %wide.trip.count
  br i1 %exitcond.not, label %.critedge26, label %25, !llvm.loop !37

25:                                               ; preds = %.lr.ph, %24
  %indvars.iv = phi i64 [ 0, %.lr.ph ], [ %indvars.iv.next, %24 ]
  %26 = getelementptr inbounds nuw i8, ptr %9, i64 %indvars.iv
  %27 = load i8, ptr %26, align 1
  %28 = zext i8 %27 to i64
  %29 = getelementptr inbounds nuw i16, ptr %23, i64 %28
  %30 = load i16, ptr %29, align 2
  %31 = and i16 %30, 8
  %.not = icmp eq i16 %31, 0
  br i1 %.not, label %24, label %.critedge

.critedge:                                        ; preds = %25
  %32 = call i32 @g_ascii_strncasecmp(ptr noundef nonnull %9, ptr noundef nonnull %11, i64 noundef %indvars.iv) #16
  %.not25 = icmp eq i32 %32, 0
  br i1 %.not25, label %33, label %41

33:                                               ; preds = %.critedge
  %34 = icmp sgt i32 %19, %21
  br i1 %34, label %46, label %35

35:                                               ; preds = %33
  %36 = icmp slt i32 %19, %21
  br i1 %36, label %46, label %37

37:                                               ; preds = %35
  %38 = load ptr, ptr %5, align 8
  %39 = load ptr, ptr %6, align 8
  %40 = call i32 @g_ascii_strcasecmp(ptr noundef %38, ptr noundef %39) #16
  br label %46

41:                                               ; preds = %.critedge
  %42 = load ptr, ptr %5, align 8
  %43 = load ptr, ptr %6, align 8
  %44 = call i32 @g_ascii_strcasecmp(ptr noundef %42, ptr noundef %43) #16
  br label %46

.critedge26:                                      ; preds = %24, %17
  %45 = call i32 @g_ascii_strcasecmp(ptr noundef nonnull %9, ptr noundef nonnull %11) #16
  br label %46

46:                                               ; preds = %35, %33, %.critedge26, %37, %41, %14, %4
  %.0 = phi i32 [ %44, %41 ], [ %40, %37 ], [ %45, %.critedge26 ], [ %16, %14 ], [ 0, %4 ], [ 1, %33 ], [ -1, %35 ]
  %47 = load ptr, ptr %5, align 8
  call void @g_free(ptr noundef %47) #16
  %48 = load ptr, ptr %6, align 8
  call void @g_free(ptr noundef %48) #16
  call void @llvm.lifetime.end.p0(i64 8, ptr nonnull %6) #16
  call void @llvm.lifetime.end.p0(i64 8, ptr nonnull %5) #16
  ret i32 %.0
}